; Function Attrs: nounwind uwtable
define void @Dau_DsdPrintFromTruth2(ptr noundef readonly captures(none) %0, i32 noundef %1) local_unnamed_addr #3 {
  %3 = alloca [2000 x i8], align 16
  %4 = alloca [64 x i64], align 16
  call void @llvm.lifetime.start.p0(i64 2000, ptr nonnull %3) #29
  call void @llvm.lifetime.start.p0(i64 512, ptr nonnull %4) #29
  %5 = icmp slt i32 %1, 7
  %6 = add nsw i32 %1, -6
  %7 = shl nuw i32 1, %6
  %8 = select i1 %5, i32 1, i32 %7
  %9 = icmp sgt i32 %8, 0
  br i1 %9, label %.lr.ph18.preheader.i, label %Abc_TtCopy.exit

.lr.ph18.preheader.i:                             ; preds = %2
  %wide.trip.count24.i = zext nneg i32 %8 to i64
  %10 = shl nuw nsw i64 %wide.trip.count24.i, 3
  call void @llvm.memcpy.p0.p0.i64(ptr noundef nonnull align 16 dereferenceable(1) %4, ptr noundef nonnull align 8 dereferenceable(1) %0, i64 %10, i1 false), !tbaa !29
  br label %Abc_TtCopy.exit

Abc_TtCopy.exit:                                  ; preds = %.lr.ph18.preheader.i, %2
  %11 = call i32 @Dau_DsdDecompose(ptr noundef nonnull %4, i32 noundef %1, i32 noundef 0, i32 noundef 1, ptr noundef nonnull %3)
  %12 = load ptr, ptr @stdout, align 8, !tbaa !154
  %fputs = call i32 @fputs(ptr nonnull %3, ptr %12)
  call void @llvm.lifetime.end.p0(i64 512, ptr nonnull %4) #29
  call void @llvm.lifetime.end.p0(i64 2000, ptr nonnull %3) #29
  ret void
}